target datalayout = "e-m:e-p270:32:32-p271:32:32-p272:64:64-i64:64-i128:128-f80:128-n8:16:32:64-S128"
target triple = "x86_64-pc-linux-gnu"

%struct.H5D_shared_t = type { i64, i8, i64, ptr, ptr, i64, i64, %struct.H5D_dcpl_cache_t, %struct.H5O_layout_t, i8, i32, [32 x i64], [32 x i64], [32 x i64], %struct.anon.6, %struct.H5D_append_flush_t, ptr, ptr }
%struct.H5D_dcpl_cache_t = type { %struct.H5O_fill_t, %struct.H5O_pline_t, %struct.H5O_efl_t }
%struct.H5O_fill_t = type { %struct.H5O_shared_t, i32, ptr, i64, ptr, i32, i32, i8 }
%struct.H5O_shared_t = type { i32, ptr, i32, %union.anon }
%union.anon = type { %struct.H5O_mesg_loc_t }
%struct.H5O_mesg_loc_t = type { i32, i64 }
%struct.H5O_pline_t = type { %struct.H5O_shared_t, i32, i64, i64, ptr }
%struct.H5O_efl_t = type { i64, i64, i64, ptr }
%struct.H5O_layout_t = type { i32, i32, ptr, %union.anon.0, %struct.H5O_storage_t }
%union.anon.0 = type { %struct.H5O_layout_chunk_t }
%struct.H5O_layout_chunk_t = type { i32, i8, i32, [33 x i32], i32, i32, i64, i64, [33 x i64], [33 x i64], [33 x i64], [33 x i64], %union.anon.1 }
%union.anon.1 = type { %struct.H5O_layout_chunk_earray_t }
%struct.H5O_layout_chunk_earray_t = type { %struct.anon.2, i32, [33 x i32], [33 x i64], [33 x i64] }
%struct.anon.2 = type { i8, i8, i8, i8, i8 }
%struct.H5O_storage_t = type { i32, %union.anon.4 }
%union.anon.4 = type { %struct.H5O_storage_virtual_t }
%struct.H5O_storage_virtual_t = type { %struct.H5HG_t, i64, ptr, i64, [32 x i64], i32, i64, i64, i64, i8 }
%struct.H5HG_t = type { i64, i64 }
%struct.anon.6 = type { %struct.H5D_rdcdc_t, %struct.H5D_rdcc_t }
%struct.H5D_rdcdc_t = type { ptr, i64, i64, i64, i8 }
%struct.H5D_rdcc_t = type { %struct.anon.7, i64, i64, double, ptr, ptr, ptr, i64, i32, %struct.H5D_chunk_cached_t, ptr, ptr, ptr, ptr, [32 x i64], [32 x i64], [32 x i32] }
%struct.anon.7 = type { i32, i32, i32, i32 }
%struct.H5D_chunk_cached_t = type { i8, [33 x i64], i64, i32, i64, i32 }
%struct.H5D_append_flush_t = type { i32, [32 x i64], ptr, ptr }
%struct.H5D_t = type { %struct.H5O_loc_t, %struct.H5G_name_t, ptr }
%struct.H5O_loc_t = type { ptr, i64, i8 }
%struct.H5G_name_t = type { ptr, ptr, i32 }

@H5D_init_g = external global i8, align 1
@H5_libterm_g = external global i8, align 1
@.str.2 = private unnamed_addr constant [100 x i8] c"generated/home/dtcxzyw/WorkSpace/Projects/compilers/llvm-opt-benchmark/bench/hdf5/hdf5/src/H5Dint.c\00", align 1
@H5E_DATASET_g = external global i64, align 8
@H5E_CANTGET_g = external global i64, align 8
@.str.113 = private unnamed_addr constant [34 x i8] c"unable to get the next power of 2\00", align 1
@__func__.H5D__cache_dataspace_info = private unnamed_addr constant [26 x i8] c"H5D__cache_dataspace_info\00", align 1
@.str.262 = private unnamed_addr constant [33 x i8] c"can't cache dataspace dimensions\00", align 1

; Function Attrs: inlinehint nounwind willreturn memory(none) uwtable
define internal i64 @H5VM_power2up(i64 noundef %0) #9 {
  %2 = alloca i64, align 8
  %3 = alloca i64, align 8
  store i64 %0, ptr %2, align 8, !tbaa !11
  call void @llvm.lifetime.start.p0(i64 8, ptr %3) #12
  store i64 1, ptr %3, align 8, !tbaa !11
  %4 = load i64, ptr %2, align 8, !tbaa !11
  %5 = icmp uge i64 %4, -9223372036854775808
  br i1 %5, label %6, label %7

6:                                                ; preds = %1
  store i64 0, ptr %3, align 8, !tbaa !11
  br label %7

7:                                                ; preds = %6, %1
  br label %8

8:                                                ; preds = %17, %7
  %9 = load i64, ptr %3, align 8, !tbaa !11
  %10 = icmp ne i64 %9, 0
  br i1 %10, label %11, label %15

11:                                               ; preds = %8
  %12 = load i64, ptr %3, align 8, !tbaa !11
  %13 = load i64, ptr %2, align 8, !tbaa !11
  %14 = icmp ult i64 %12, %13
  br label %15

15:                                               ; preds = %11, %8
  %16 = phi i1 [ false, %8 ], [ %14, %11 ]
  br i1 %16, label %17, label %20

17:                                               ; preds = %15
  %18 = load i64, ptr %3, align 8, !tbaa !11
  %19 = shl i64 %18, 1
  store i64 %19, ptr %3, align 8, !tbaa !11
  br label %8, !llvm.loop !191

20:                                               ; preds = %15
  %21 = load i64, ptr %3, align 8, !tbaa !11
  call void @llvm.lifetime.end.p0(i64 8, ptr %3) #12
  ret i64 %21
}

; Function Attrs: nounwind uwtable
define internal i32 @H5D__cache_dataspace_info(ptr noundef %0) #0 {
  %2 = alloca i32, align 4
  %3 = alloca ptr, align 8
  %4 = alloca i32, align 4
  %5 = alloca i32, align 4
  %6 = alloca i32, align 4
  %7 = alloca i8, align 1
  %8 = alloca i64, align 8
  %9 = alloca i32, align 4
  store ptr %0, ptr %3, align 8, !tbaa !49
  call void @llvm.lifetime.start.p0(i64 4, ptr %4) #12
  call void @llvm.lifetime.start.p0(i64 4, ptr %5) #12
  call void @llvm.lifetime.start.p0(i64 4, ptr %6) #12
  store i32 0, ptr %6, align 4, !tbaa !3
  call void @llvm.lifetime.start.p0(i64 1, ptr %7) #12
  store i8 0, ptr %7, align 1, !tbaa !7
  %10 = load i8, ptr @H5D_init_g, align 1, !tbaa !7, !range !9, !noundef !10
  %11 = trunc i8 %10 to i1
  br i1 %11, label %16, label %12

12:                                               ; preds = %1
  %13 = load i8, ptr @H5_libterm_g, align 1, !tbaa !7, !range !9, !noundef !10
  %14 = trunc i8 %13 to i1
  %15 = xor i1 %14, true
  br label %16

16:                                               ; preds = %12, %1
  %17 = phi i1 [ true, %1 ], [ %15, %12 ]
  %18 = xor i1 %17, true
  %19 = xor i1 %18, true
  %20 = zext i1 %19 to i32
  %21 = sext i32 %20 to i64
  %22 = call i64 @llvm.expect.i64(i64 %21, i64 1)
  %23 = icmp ne i64 %22, 0
  br i1 %23, label %24, label %122

24:                                               ; preds = %16
  %25 = load ptr, ptr %3, align 8, !tbaa !49
  %26 = getelementptr inbounds nuw %struct.H5D_t, ptr %25, i32 0, i32 2
  %27 = load ptr, ptr %26, align 8, !tbaa !61
  %28 = getelementptr inbounds nuw %struct.H5D_shared_t, ptr %27, i32 0, i32 4
  %29 = load ptr, ptr %28, align 8, !tbaa !69
  %30 = load ptr, ptr %3, align 8, !tbaa !49
  %31 = getelementptr inbounds nuw %struct.H5D_t, ptr %30, i32 0, i32 2
  %32 = load ptr, ptr %31, align 8, !tbaa !61
  %33 = getelementptr inbounds nuw %struct.H5D_shared_t, ptr %32, i32 0, i32 11
  %34 = getelementptr inbounds [32 x i64], ptr %33, i64 0, i64 0
  %35 = load ptr, ptr %3, align 8, !tbaa !49
  %36 = getelementptr inbounds nuw %struct.H5D_t, ptr %35, i32 0, i32 2
  %37 = load ptr, ptr %36, align 8, !tbaa !61
  %38 = getelementptr inbounds nuw %struct.H5D_shared_t, ptr %37, i32 0, i32 13
  %39 = getelementptr inbounds [32 x i64], ptr %38, i64 0, i64 0
  %40 = call i32 @H5S_get_simple_extent_dims(ptr noundef %29, ptr noundef %34, ptr noundef %39)
  store i32 %40, ptr %4, align 4, !tbaa !3
  %41 = icmp slt i32 %40, 0
  br i1 %41, label %42, label %61

42:                                               ; preds = %24
  br label %43

43:                                               ; preds = %42
  br label %44

44:                                               ; preds = %43
  br label %45

45:                                               ; preds = %44
  %46 = load i64, ptr @H5E_DATASET_g, align 8, !tbaa !11
  %47 = load i64, ptr @H5E_CANTGET_g, align 8, !tbaa !11
  %48 = call i32 (ptr, ptr, i32, i64, i64, ptr, ...) @H5E_printf_stack(ptr noundef @.str.2, ptr noundef @__func__.H5D__cache_dataspace_info, i32 noundef 625, i64 noundef %46, i64 noundef %47, ptr noundef @.str.262)
  br label %49

49:                                               ; preds = %45
  br label %50

50:                                               ; preds = %49
  store i8 1, ptr %7, align 1, !tbaa !7
  %51 = load i8, ptr %7, align 1, !tbaa !7, !range !9, !noundef !10
  %52 = trunc i8 %51 to i1
  %53 = zext i1 %52 to i8
  store i8 %53, ptr %7, align 1, !tbaa !7
  br label %54

54:                                               ; preds = %50
  br label %55

55:                                               ; preds = %54
  br label %56

56:                                               ; preds = %55
  store i32 -1, ptr %6, align 4, !tbaa !3
  br label %121

57:                                               ; No predecessors!
  br label %58

58:                                               ; preds = %57
  br label %59

59:                                               ; preds = %58
  br label %60

60:                                               ; preds = %59
  br label %61

61:                                               ; preds = %60, %24
  %62 = load i32, ptr %4, align 4, !tbaa !3
  %63 = load ptr, ptr %3, align 8, !tbaa !49
  %64 = getelementptr inbounds nuw %struct.H5D_t, ptr %63, i32 0, i32 2
  %65 = load ptr, ptr %64, align 8, !tbaa !61
  %66 = getelementptr inbounds nuw %struct.H5D_shared_t, ptr %65, i32 0, i32 10
  store i32 %62, ptr %66, align 4, !tbaa !138
  store i32 0, ptr %5, align 4, !tbaa !3
  br label %67

67:                                               ; preds = %117, %61
  %68 = load i32, ptr %5, align 4, !tbaa !3
  %69 = load ptr, ptr %3, align 8, !tbaa !49
  %70 = getelementptr inbounds nuw %struct.H5D_t, ptr %69, i32 0, i32 2
  %71 = load ptr, ptr %70, align 8, !tbaa !61
  %72 = getelementptr inbounds nuw %struct.H5D_shared_t, ptr %71, i32 0, i32 10
  %73 = load i32, ptr %72, align 4, !tbaa !138
  %74 = icmp ult i32 %68, %73
  br i1 %74, label %75, label %120

75:                                               ; preds = %67
  call void @llvm.lifetime.start.p0(i64 8, ptr %8) #12
  %76 = load ptr, ptr %3, align 8, !tbaa !49
  %77 = getelementptr inbounds nuw %struct.H5D_t, ptr %76, i32 0, i32 2
  %78 = load ptr, ptr %77, align 8, !tbaa !61
  %79 = getelementptr inbounds nuw %struct.H5D_shared_t, ptr %78, i32 0, i32 11
  %80 = load i32, ptr %5, align 4, !tbaa !3
  %81 = zext i32 %80 to i64
  %82 = getelementptr inbounds nuw [32 x i64], ptr %79, i64 0, i64 %81
  %83 = load i64, ptr %82, align 8, !tbaa !11
  %84 = call i64 @H5VM_power2up(i64 noundef %83) #15
  store i64 %84, ptr %8, align 8, !tbaa !11
  %85 = icmp ne i64 %84, 0
  br i1 %85, label %105, label %86

86:                                               ; preds = %75
  br label %87

87:                                               ; preds = %86
  br label %88

88:                                               ; preds = %87
  br label %89

89:                                               ; preds = %88
  %90 = load i64, ptr @H5E_DATASET_g, align 8, !tbaa !11
  %91 = load i64, ptr @H5E_CANTGET_g, align 8, !tbaa !11
  %92 = call i32 (ptr, ptr, i32, i64, i64, ptr, ...) @H5E_printf_stack(ptr noundef @.str.2, ptr noundef @__func__.H5D__cache_dataspace_info, i32 noundef 633, i64 noundef %90, i64 noundef %91, ptr noundef @.str.113)
  br label %93

93:                                               ; preds = %89
  br label %94

94:                                               ; preds = %93
  store i8 1, ptr %7, align 1, !tbaa !7
  %95 = load i8, ptr %7, align 1, !tbaa !7, !range !9, !noundef !10
  %96 = trunc i8 %95 to i1
  %97 = zext i1 %96 to i8
  store i8 %97, ptr %7, align 1, !tbaa !7
  br label %98

98:                                               ; preds = %94
  br label %99

99:                                               ; preds = %98
  br label %100

100:                                              ; preds = %99
  store i32 -1, ptr %6, align 4, !tbaa !3
  store i32 10, ptr %9, align 4
  br label %114

101:                                              ; No predecessors!
  br label %102

102:                                              ; preds = %101
  br label %103

103:                                              ; preds = %102
  br label %104

104:                                              ; preds = %103
  br label %105

105:                                              ; preds = %104, %75
  %106 = load i64, ptr %8, align 8, !tbaa !11
  %107 = load ptr, ptr %3, align 8, !tbaa !49
  %108 = getelementptr inbounds nuw %struct.H5D_t, ptr %107, i32 0, i32 2
  %109 = load ptr, ptr %108, align 8, !tbaa !61
  %110 = getelementptr inbounds nuw %struct.H5D_shared_t, ptr %109, i32 0, i32 12
  %111 = load i32, ptr %5, align 4, !tbaa !3
  %112 = zext i32 %111 to i64
  %113 = getelementptr inbounds nuw [32 x i64], ptr %110, i64 0, i64 %112
  store i64 %106, ptr %113, align 8, !tbaa !11
  store i32 0, ptr %9, align 4
  br label %114

114:                                              ; preds = %100, %105
  call void @llvm.lifetime.end.p0(i64 8, ptr %8) #12
  %115 = load i32, ptr %9, align 4
  switch i32 %115, label %124 [
    i32 0, label %116
    i32 10, label %121
  ]

116:                                              ; preds = %114
  br label %117

117:                                              ; preds = %116
  %118 = load i32, ptr %5, align 4, !tbaa !3
  %119 = add i32 %118, 1
  store i32 %119, ptr %5, align 4, !tbaa !3
  br label %67, !llvm.loop !139

120:                                              ; preds = %67
  br label %121

121:                                              ; preds = %120, %114, %56
  br label %122

122:                                              ; preds = %121, %16
  %123 = load i32, ptr %6, align 4, !tbaa !3
  store i32 %123, ptr %2, align 4
  store i32 1, ptr %9, align 4
  br label %124

124:                                              ; preds = %122, %114
  call void @llvm.lifetime.end.p0(i64 1, ptr %7) #12
  call void @llvm.lifetime.end.p0(i64 4, ptr %6) #12
  call void @llvm.lifetime.end.p0(i64 4, ptr %5) #12
  call void @llvm.lifetime.end.p0(i64 4, ptr %4) #12
  %125 = load i32, ptr %2, align 4
  ret i32 %125
}