; Function Attrs: nounwind uwtable
define internal fastcc range(i32 -1, 1) i32 @H5D__cache_dataspace_info(ptr noundef readonly captures(none) %0) unnamed_addr #0 {
  %2 = load i8, ptr @H5D_init_g, align 1, !tbaa !3, !range !7, !noundef !8
  %3 = trunc nuw i8 %2 to i1
  %4 = load i8, ptr @H5_libterm_g, align 1, !range !7
  %5 = trunc nuw i8 %4 to i1
  %6 = xor i1 %5, true
  %7 = select i1 %3, i1 true, i1 %6
  br i1 %7, label %8, label %.loopexit, !prof !9

8:                                                ; preds = %1
  %9 = getelementptr inbounds nuw i8, ptr %0, i64 48
  %10 = load ptr, ptr %9, align 8, !tbaa !52
  %11 = getelementptr inbounds nuw i8, ptr %10, i64 32
  %12 = load ptr, ptr %11, align 8, !tbaa !60
  %13 = getelementptr inbounds nuw i8, ptr %10, i64 2512
  %14 = getelementptr inbounds nuw i8, ptr %10, i64 3024
  %15 = tail call i32 @H5S_get_simple_extent_dims(ptr noundef %12, ptr noundef nonnull %13, ptr noundef nonnull %14) #12
  %16 = icmp slt i32 %15, 0
  br i1 %16, label %17, label %21

17:                                               ; preds = %8
  %18 = load i64, ptr @H5E_DATASET_g, align 8, !tbaa !10
  %19 = load i64, ptr @H5E_CANTGET_g, align 8, !tbaa !10
  %20 = tail call i32 (ptr, ptr, i32, i64, i64, ptr, ...) @H5E_printf_stack(ptr noundef nonnull @.str.2, ptr noundef nonnull @__func__.H5D__cache_dataspace_info, i32 noundef 625, i64 noundef %18, i64 noundef %19, ptr noundef nonnull @.str.262) #12
  br label %.loopexit

21:                                               ; preds = %8
  %22 = load ptr, ptr %9, align 8, !tbaa !52
  %23 = getelementptr inbounds nuw i8, ptr %22, i64 2508
  store i32 %15, ptr %23, align 4, !tbaa !119
  %.not27 = icmp eq i32 %15, 0
  br i1 %.not27, label %.loopexit, label %.lr.ph

.lr.ph:                                           ; preds = %21
  %24 = getelementptr inbounds nuw i8, ptr %22, i64 2512
  %25 = getelementptr inbounds nuw i8, ptr %22, i64 2768
  %wide.trip.count = zext nneg i32 %15 to i64
  br label %26

26:                                               ; preds = %.lr.ph, %39
  %indvars.iv = phi i64 [ 0, %.lr.ph ], [ %indvars.iv.next, %39 ]
  %27 = getelementptr inbounds nuw [32 x i64], ptr %24, i64 0, i64 %indvars.iv
  %28 = load i64, ptr %27, align 8, !tbaa !10
  %29 = icmp sgt i64 %28, -1
  %spec.store.select.i = zext i1 %29 to i64
  br label %30

30:                                               ; preds = %30, %26
  %.0.i = phi i64 [ %spec.store.select.i, %26 ], [ %34, %30 ]
  %31 = icmp ne i64 %.0.i, 0
  %32 = icmp ult i64 %.0.i, %28
  %33 = and i1 %31, %32
  %34 = shl i64 %.0.i, 1
  br i1 %33, label %30, label %H5VM_power2up.exit, !llvm.loop !120

H5VM_power2up.exit:                               ; preds = %30
  %.not = icmp eq i64 %.0.i, 0
  br i1 %.not, label %35, label %39

35:                                               ; preds = %H5VM_power2up.exit
  %36 = load i64, ptr @H5E_DATASET_g, align 8, !tbaa !10
  %37 = load i64, ptr @H5E_CANTGET_g, align 8, !tbaa !10
  %38 = tail call i32 (ptr, ptr, i32, i64, i64, ptr, ...) @H5E_printf_stack(ptr noundef nonnull @.str.2, ptr noundef nonnull @__func__.H5D__cache_dataspace_info, i32 noundef 633, i64 noundef %36, i64 noundef %37, ptr noundef nonnull @.str.113) #12
  br label %.loopexit

39:                                               ; preds = %H5VM_power2up.exit
  %40 = getelementptr inbounds nuw [32 x i64], ptr %25, i64 0, i64 %indvars.iv
  store i64 %.0.i, ptr %40, align 8, !tbaa !10
  %indvars.iv.next = add nuw nsw i64 %indvars.iv, 1
  %exitcond.not = icmp eq i64 %indvars.iv.next, %wide.trip.count
  br i1 %exitcond.not, label %.loopexit, label %26, !llvm.loop !121

.loopexit:                                        ; preds = %39, %21, %35, %1, %17
  %.017 = phi i32 [ -1, %17 ], [ -1, %35 ], [ 0, %1 ], [ 0, %21 ], [ 0, %39 ]
  ret i32 %.017
}